ARM GAS  C:\Users\danie\AppData\Local\Temp\cc8uma5Z.s 			page 1


   1              		.syntax unified
   2              		.cpu cortex-m3
   3              		.fpu softvfp
   4              		.eabi_attribute 20, 1
   5              		.eabi_attribute 21, 1
   6              		.eabi_attribute 23, 3
   7              		.eabi_attribute 24, 1
   8              		.eabi_attribute 25, 1
   9              		.eabi_attribute 26, 1
  10              		.eabi_attribute 30, 1
  11              		.eabi_attribute 34, 1
  12              		.eabi_attribute 18, 4
  13              		.thumb
  14              		.syntax unified
  15              		.file	"main.c"
  16              		.text
  17              	.Ltext0:
  18              		.cfi_sections	.debug_frame
  19              		.global	__aeabi_ui2d
  20              		.global	__aeabi_dsub
  21              		.global	__aeabi_dmul
  22              		.global	__aeabi_dadd
  23              		.global	__aeabi_d2uiz
  24              		.section	.text.steer_inter,"ax",%progbits
  25              		.align	2
  26              		.global	steer_inter
  27              		.thumb
  28              		.thumb_func
  29              		.type	steer_inter, %function
  30              	steer_inter:
  31              	.LFB64:
  32              		.file 1 "main.c"
   1:main.c        **** // ALL DEBUG OUTPUTS ARE IN P5[1-5]
   2:main.c        **** 
   3:main.c        **** #include "project.h"
   4:main.c        **** #include <stdio.h>
   5:main.c        **** 
   6:main.c        **** // Speed control constants and variables
   7:main.c        **** #define TARGET_SPEED 4.0          
   8:main.c        **** #define WHEEL_CIRCUMFERENCE 0.5   
   9:main.c        **** #define PULSES_PER_TURN 5         
  10:main.c        **** #define Kp_speed 100               
  11:main.c        **** #define Ki_speed 15            
  12:main.c        ****                 
  13:main.c        **** volatile double speed = 0.0;
  14:main.c        **** uint16 old = 65535;
  15:main.c        **** uint16 new;
  16:main.c        **** uint16 elapsed;
  17:main.c        **** volatile double PWM_base = 1000;
  18:main.c        **** volatile double pwm;
  19:main.c        **** double err_speed;
  20:main.c        **** double acc_err_speed = 0;
  21:main.c        **** char strbuf[42];
  22:main.c        **** 
  23:main.c        **** // Line-following constants and variables       
  24:main.c        **** #define MIDDLE_LINE 700
  25:main.c        **** #define Kp_steering 10
ARM GAS  C:\Users\danie\AppData\Local\Temp\cc8uma5Z.s 			page 2


  26:main.c        **** #define Ki_steering 0.5
  27:main.c        **** #define Kd_steering 0.5
  28:main.c        **** 
  29:main.c        **** double error_steering = 0;
  30:main.c        **** double steeringIntegral = 0;
  31:main.c        **** double steeringDerivative = 0;
  32:main.c        **** double previousSteeringError = 0;
  33:main.c        **** double steeringOutput = 0;
  34:main.c        **** int steeringPWM = 0;
  35:main.c        **** double sampledTime;
  36:main.c        **** 
  37:main.c        **** #define PWM_MIN 1000
  38:main.c        **** #define PWM_CENTER 1500
  39:main.c        **** #define PWM_MAX 2000
  40:main.c        **** 
  41:main.c        **** 
  42:main.c        **** char str_buf [32];
  43:main.c        **** 
  44:main.c        **** // C Sync ISR - increments line count and signals the middle line
  45:main.c        **** CY_ISR(steer_inter) {
  33              		.loc 1 45 0
  34              		.cfi_startproc
  35              		@ args = 0, pretend = 0, frame = 0
  36              		@ frame_needed = 0, uses_anonymous_args = 0
  37 0000 70B5     		push	{r4, r5, r6, lr}
  38              		.cfi_def_cfa_offset 16
  39              		.cfi_offset 4, -16
  40              		.cfi_offset 5, -12
  41              		.cfi_offset 6, -8
  42              		.cfi_offset 14, -4
  46:main.c        ****     
  47:main.c        ****     // Read the capture value from the sample timer
  48:main.c        ****     sampledTime =  65535 - (double) VID_TIMER_ReadCapture();
  43              		.loc 1 48 0
  44 0002 FFF7FEFF 		bl	VID_TIMER_ReadCapture
  45              	.LVL0:
  46 0006 FFF7FEFF 		bl	__aeabi_ui2d
  47              	.LVL1:
  48 000a 0246     		mov	r2, r0
  49 000c 0B46     		mov	r3, r1
  50 000e 2AA1     		adr	r1, .L5
  51 0010 D1E90001 		ldrd	r0, [r1]
  52 0014 FFF7FEFF 		bl	__aeabi_dsub
  53              	.LVL2:
  54 0018 0246     		mov	r2, r0
  55 001a 0B46     		mov	r3, r1
  56 001c 2A4E     		ldr	r6, .L5+16
  57 001e C6E90023 		strd	r2, [r6]
  49:main.c        ****     // Calculate steering error
  50:main.c        ****     error_steering = MIDDLE_LINE - sampledTime;
  58              		.loc 1 50 0
  59 0022 0020     		movs	r0, #0
  60 0024 2949     		ldr	r1, .L5+20
  61 0026 FFF7FEFF 		bl	__aeabi_dsub
  62              	.LVL3:
  63 002a 294C     		ldr	r4, .L5+24
  64 002c C4E90001 		strd	r0, [r4]
ARM GAS  C:\Users\danie\AppData\Local\Temp\cc8uma5Z.s 			page 3


  51:main.c        **** 
  52:main.c        ****     // steering calculations
  53:main.c        ****     // steeringDerivative = error_steering - previousSteeringError;
  54:main.c        ****     // previousSteeringError = error_steering;
  55:main.c        ****     steeringOutput = PWM_CENTER + (Kp_steering * error_steering);
  65              		.loc 1 55 0
  66 0030 0022     		movs	r2, #0
  67 0032 284B     		ldr	r3, .L5+28
  68 0034 FFF7FEFF 		bl	__aeabi_dmul
  69              	.LVL4:
  70 0038 21A3     		adr	r3, .L5+8
  71 003a D3E90023 		ldrd	r2, [r3]
  72 003e FFF7FEFF 		bl	__aeabi_dadd
  73              	.LVL5:
  74 0042 C4E90201 		strd	r0, [r4, #8]
  56:main.c        ****     
  57:main.c        ****     // DEBUG
  58:main.c        ****     UART_PutString("\r\n NAV INTR");
  75              		.loc 1 58 0
  76 0046 2448     		ldr	r0, .L5+32
  77 0048 FFF7FEFF 		bl	UART_PutString
  78              	.LVL6:
  59:main.c        ****     sprintf(str_buf, "\r\n time:  %f", sampledTime);
  79              		.loc 1 59 0
  80 004c 234D     		ldr	r5, .L5+36
  81 004e D6E90023 		ldrd	r2, [r6]
  82 0052 2349     		ldr	r1, .L5+40
  83 0054 2846     		mov	r0, r5
  84 0056 FFF7FEFF 		bl	sprintf
  85              	.LVL7:
  60:main.c        ****     UART_PutString(str_buf);
  86              		.loc 1 60 0
  87 005a 2846     		mov	r0, r5
  88 005c FFF7FEFF 		bl	UART_PutString
  89              	.LVL8:
  61:main.c        ****     sprintf(str_buf, "\r\n steering error:  %f", error_steering);
  90              		.loc 1 61 0
  91 0060 D4E90023 		ldrd	r2, [r4]
  92 0064 1F49     		ldr	r1, .L5+44
  93 0066 2846     		mov	r0, r5
  94 0068 FFF7FEFF 		bl	sprintf
  95              	.LVL9:
  62:main.c        ****     UART_PutString(str_buf);
  96              		.loc 1 62 0
  97 006c 2846     		mov	r0, r5
  98 006e FFF7FEFF 		bl	UART_PutString
  99              	.LVL10:
  63:main.c        ****     sprintf(str_buf, "\r\n steering pwm:  %f", steeringOutput);
 100              		.loc 1 63 0
 101 0072 D4E90223 		ldrd	r2, [r4, #8]
 102 0076 1C49     		ldr	r1, .L5+48
 103 0078 2846     		mov	r0, r5
 104 007a FFF7FEFF 		bl	sprintf
 105              	.LVL11:
  64:main.c        ****     UART_PutString(str_buf);
 106              		.loc 1 64 0
 107 007e 2846     		mov	r0, r5
ARM GAS  C:\Users\danie\AppData\Local\Temp\cc8uma5Z.s 			page 4


 108 0080 FFF7FEFF 		bl	UART_PutString
 109              	.LVL12:
  65:main.c        ****     
  66:main.c        ****     steeringPWM = (uint16)steeringOutput;
 110              		.loc 1 66 0
 111 0084 D4E90201 		ldrd	r0, [r4, #8]
 112 0088 FFF7FEFF 		bl	__aeabi_d2uiz
 113              	.LVL13:
 114 008c 80B2     		uxth	r0, r0
 115 008e 2061     		str	r0, [r4, #16]
  67:main.c        ****     
  68:main.c        ****     // limit steering PWM within the min and max bounds
  69:main.c        ****     if (steeringPWM < PWM_MIN) steeringPWM = PWM_MIN;
 116              		.loc 1 69 0
 117 0090 B0F57A7F 		cmp	r0, #1000
 118 0094 02DA     		bge	.L2
 119              		.loc 1 69 0 is_stmt 0 discriminator 1
 120 0096 4FF47A72 		mov	r2, #1000
 121 009a 2261     		str	r2, [r4, #16]
 122              	.L2:
  70:main.c        ****     if (steeringPWM > PWM_MAX) steeringPWM = PWM_MAX;
 123              		.loc 1 70 0 is_stmt 1
 124 009c 0C4B     		ldr	r3, .L5+24
 125 009e 1B69     		ldr	r3, [r3, #16]
 126 00a0 B3F5FA6F 		cmp	r3, #2000
 127 00a4 03DD     		ble	.L3
 128              		.loc 1 70 0 is_stmt 0 discriminator 1
 129 00a6 4FF4FA62 		mov	r2, #2000
 130 00aa 094B     		ldr	r3, .L5+24
 131 00ac 1A61     		str	r2, [r3, #16]
 132              	.L3:
  71:main.c        ****     
  72:main.c        ****     // update servo PWM
  73:main.c        ****     SERVO_PWM_WriteCompare(steeringPWM);
 133              		.loc 1 73 0 is_stmt 1
 134 00ae 084B     		ldr	r3, .L5+24
 135 00b0 188A     		ldrh	r0, [r3, #16]
 136 00b2 FFF7FEFF 		bl	SERVO_PWM_WriteCompare
 137              	.LVL14:
 138 00b6 70BD     		pop	{r4, r5, r6, pc}
 139              	.L6:
 140              		.align	3
 141              	.L5:
 142 00b8 00000000 		.word	0
 143 00bc E0FFEF40 		.word	1089470432
 144 00c0 00000000 		.word	0
 145 00c4 00709740 		.word	1083666432
 146 00c8 00000000 		.word	sampledTime
 147 00cc 00E08540 		.word	1082515456
 148 00d0 00000000 		.word	.LANCHOR0
 149 00d4 00002440 		.word	1076101120
 150 00d8 00000000 		.word	.LC0
 151 00dc 00000000 		.word	str_buf
 152 00e0 0C000000 		.word	.LC1
 153 00e4 1C000000 		.word	.LC2
 154 00e8 34000000 		.word	.LC3
 155              		.cfi_endproc
ARM GAS  C:\Users\danie\AppData\Local\Temp\cc8uma5Z.s 			page 5


 156              	.LFE64:
 157              		.size	steer_inter, .-steer_inter
 158              		.global	__aeabi_ddiv
 159              		.global	__aeabi_dcmpgt
 160              		.global	__aeabi_dcmplt
 161              		.global	__aeabi_d2iz
 162              		.section	.text.speed_inter,"ax",%progbits
 163              		.align	2
 164              		.global	speed_inter
 165              		.thumb
 166              		.thumb_func
 167              		.type	speed_inter, %function
 168              	speed_inter:
 169              	.LFB65:
  74:main.c        **** }
  75:main.c        **** 
  76:main.c        **** 
  77:main.c        **** CY_ISR(speed_inter) {
 170              		.loc 1 77 0
 171              		.cfi_startproc
 172              		@ args = 0, pretend = 0, frame = 0
 173              		@ frame_needed = 0, uses_anonymous_args = 0
 174 0000 2DE9F843 		push	{r3, r4, r5, r6, r7, r8, r9, lr}
 175              		.cfi_def_cfa_offset 32
 176              		.cfi_offset 3, -32
 177              		.cfi_offset 4, -28
 178              		.cfi_offset 5, -24
 179              		.cfi_offset 6, -20
 180              		.cfi_offset 7, -16
 181              		.cfi_offset 8, -12
 182              		.cfi_offset 9, -8
 183              		.cfi_offset 14, -4
  78:main.c        ****     new = TIMER_ReadCapture();
 184              		.loc 1 78 0
 185 0004 FFF7FEFF 		bl	TIMER_ReadCapture
 186              	.LVL15:
 187 0008 4D4B     		ldr	r3, .L20+16
 188 000a 1880     		strh	r0, [r3]	@ movhi
  79:main.c        ****     if (new <= old)
 189              		.loc 1 79 0
 190 000c 4D4B     		ldr	r3, .L20+20
 191 000e 1B88     		ldrh	r3, [r3]
 192 0010 9842     		cmp	r0, r3
 193 0012 03D8     		bhi	.L8
  80:main.c        ****         elapsed = old - new;
 194              		.loc 1 80 0
 195 0014 1B1A     		subs	r3, r3, r0
 196 0016 4C4A     		ldr	r2, .L20+24
 197 0018 1380     		strh	r3, [r2]	@ movhi
 198 001a 03E0     		b	.L9
 199              	.L8:
  81:main.c        ****     else
  82:main.c        ****         elapsed = 65535 - new + old;
 200              		.loc 1 82 0
 201 001c 1B1A     		subs	r3, r3, r0
 202 001e 013B     		subs	r3, r3, #1
 203 0020 494A     		ldr	r2, .L20+24
ARM GAS  C:\Users\danie\AppData\Local\Temp\cc8uma5Z.s 			page 6


 204 0022 1380     		strh	r3, [r2]	@ movhi
 205              	.L9:
  83:main.c        ****     
  84:main.c        ****     speed = 1256.0 / (double) elapsed;
 206              		.loc 1 84 0
 207 0024 484B     		ldr	r3, .L20+24
 208 0026 1888     		ldrh	r0, [r3]
 209 0028 FFF7FEFF 		bl	__aeabi_ui2d
 210              	.LVL16:
 211 002c 0246     		mov	r2, r0
 212 002e 0B46     		mov	r3, r1
 213 0030 0020     		movs	r0, #0
 214 0032 4649     		ldr	r1, .L20+28
 215 0034 FFF7FEFF 		bl	__aeabi_ddiv
 216              	.LVL17:
 217 0038 454C     		ldr	r4, .L20+32
 218 003a C4E90601 		strd	r0, [r4, #24]
  85:main.c        ****     err_speed = TARGET_SPEED - speed;
 219              		.loc 1 85 0
 220 003e D4E90623 		ldrd	r2, [r4, #24]
 221 0042 0020     		movs	r0, #0
 222 0044 4349     		ldr	r1, .L20+36
 223 0046 FFF7FEFF 		bl	__aeabi_dsub
 224              	.LVL18:
 225 004a 8046     		mov	r8, r0
 226 004c 8946     		mov	r9, r1
 227 004e 424B     		ldr	r3, .L20+40
 228 0050 C3E90089 		strd	r8, [r3]
  86:main.c        ****     acc_err_speed += err_speed;
 229              		.loc 1 86 0
 230 0054 D4E90823 		ldrd	r2, [r4, #32]
 231 0058 FFF7FEFF 		bl	__aeabi_dadd
 232              	.LVL19:
 233 005c 0646     		mov	r6, r0
 234 005e 0F46     		mov	r7, r1
 235 0060 C4E90867 		strd	r6, [r4, #32]
  87:main.c        **** 
  88:main.c        ****     if (error_steering > 200)
 236              		.loc 1 88 0
 237 0064 0022     		movs	r2, #0
 238 0066 3D4B     		ldr	r3, .L20+44
 239 0068 D4E90001 		ldrd	r0, [r4]
 240 006c FFF7FEFF 		bl	__aeabi_dcmpgt
 241              	.LVL20:
 242 0070 28B1     		cbz	r0, .L10
  89:main.c        ****        PWM_base = 1500; 
 243              		.loc 1 89 0
 244 0072 2FA1     		adr	r1, .L20
 245 0074 D1E90001 		ldrd	r0, [r1]
 246 0078 324B     		ldr	r3, .L20+20
 247 007a C3E90201 		strd	r0, [r3, #8]
 248              	.L10:
  90:main.c        ****     
  91:main.c        ****     pwm = PWM_base + Kp_speed * err_speed + Ki_speed * acc_err_speed;
 249              		.loc 1 91 0
 250 007e 0022     		movs	r2, #0
 251 0080 374B     		ldr	r3, .L20+48
ARM GAS  C:\Users\danie\AppData\Local\Temp\cc8uma5Z.s 			page 7


 252 0082 4046     		mov	r0, r8
 253 0084 4946     		mov	r1, r9
 254 0086 FFF7FEFF 		bl	__aeabi_dmul
 255              	.LVL21:
 256 008a 2E4B     		ldr	r3, .L20+20
 257 008c D3E90223 		ldrd	r2, [r3, #8]
 258 0090 FFF7FEFF 		bl	__aeabi_dadd
 259              	.LVL22:
 260 0094 0446     		mov	r4, r0
 261 0096 0D46     		mov	r5, r1
 262 0098 0022     		movs	r2, #0
 263 009a 324B     		ldr	r3, .L20+52
 264 009c 3046     		mov	r0, r6
 265 009e 3946     		mov	r1, r7
 266 00a0 FFF7FEFF 		bl	__aeabi_dmul
 267              	.LVL23:
 268 00a4 0246     		mov	r2, r0
 269 00a6 0B46     		mov	r3, r1
 270 00a8 2046     		mov	r0, r4
 271 00aa 2946     		mov	r1, r5
 272 00ac FFF7FEFF 		bl	__aeabi_dadd
 273              	.LVL24:
 274 00b0 2D4C     		ldr	r4, .L20+56
 275 00b2 C4E90001 		strd	r0, [r4]
  92:main.c        ****     if (pwm < 500)
 276              		.loc 1 92 0
 277 00b6 0022     		movs	r2, #0
 278 00b8 2C4B     		ldr	r3, .L20+60
 279 00ba D4E90001 		ldrd	r0, [r4]
 280 00be FFF7FEFF 		bl	__aeabi_dcmplt
 281              	.LVL25:
 282 00c2 18B1     		cbz	r0, .L12
  93:main.c        ****         pwm = 500;
 283              		.loc 1 93 0
 284 00c4 0020     		movs	r0, #0
 285 00c6 2949     		ldr	r1, .L20+60
 286 00c8 C4E90001 		strd	r0, [r4]
 287              	.L12:
  94:main.c        ****     if (pwm > 2500)
 288              		.loc 1 94 0
 289 00cc 1AA3     		adr	r3, .L20+8
 290 00ce D3E90023 		ldrd	r2, [r3]
 291 00d2 2549     		ldr	r1, .L20+56
 292 00d4 D1E90001 		ldrd	r0, [r1]
 293 00d8 FFF7FEFF 		bl	__aeabi_dcmpgt
 294              	.LVL26:
 295 00dc 28B1     		cbz	r0, .L14
  95:main.c        ****         pwm = 2500;
 296              		.loc 1 95 0
 297 00de 16A1     		adr	r1, .L20+8
 298 00e0 D1E90001 		ldrd	r0, [r1]
 299 00e4 204B     		ldr	r3, .L20+56
 300 00e6 C3E90001 		strd	r0, [r3]
 301              	.L14:
  96:main.c        ****     
  97:main.c        ****     sprintf(strbuf, "%d ft/s,\r\n", (int)(speed * 1000));
 302              		.loc 1 97 0
ARM GAS  C:\Users\danie\AppData\Local\Temp\cc8uma5Z.s 			page 8


 303 00ea 0022     		movs	r2, #0
 304 00ec 204B     		ldr	r3, .L20+64
 305 00ee 1849     		ldr	r1, .L20+32
 306 00f0 D1E90601 		ldrd	r0, [r1, #24]
 307 00f4 FFF7FEFF 		bl	__aeabi_dmul
 308              	.LVL27:
 309 00f8 FFF7FEFF 		bl	__aeabi_d2iz
 310              	.LVL28:
 311 00fc 1D4C     		ldr	r4, .L20+68
 312 00fe 0246     		mov	r2, r0
 313 0100 1D49     		ldr	r1, .L20+72
 314 0102 2046     		mov	r0, r4
 315 0104 FFF7FEFF 		bl	sprintf
 316              	.LVL29:
  98:main.c        ****     UART_PutString(strbuf);
 317              		.loc 1 98 0
 318 0108 2046     		mov	r0, r4
 319 010a FFF7FEFF 		bl	UART_PutString
 320              	.LVL30:
  99:main.c        ****     PWM_WriteCompare((uint16)pwm);
 321              		.loc 1 99 0
 322 010e 164B     		ldr	r3, .L20+56
 323 0110 D3E90001 		ldrd	r0, [r3]
 324 0114 FFF7FEFF 		bl	__aeabi_d2uiz
 325              	.LVL31:
 326 0118 80B2     		uxth	r0, r0
 327 011a FFF7FEFF 		bl	PWM_WriteCompare
 328              	.LVL32:
 100:main.c        ****     TIMER_ReadStatusRegister();
 329              		.loc 1 100 0
 330 011e FFF7FEFF 		bl	TIMER_ReadStatusRegister
 331              	.LVL33:
 101:main.c        ****     old = new;
 332              		.loc 1 101 0
 333 0122 074B     		ldr	r3, .L20+16
 334 0124 1A88     		ldrh	r2, [r3]
 335 0126 074B     		ldr	r3, .L20+20
 336 0128 1A80     		strh	r2, [r3]	@ movhi
 337 012a BDE8F883 		pop	{r3, r4, r5, r6, r7, r8, r9, pc}
 338              	.L21:
 339 012e 00BF     		.align	3
 340              	.L20:
 341 0130 00000000 		.word	0
 342 0134 00709740 		.word	1083666432
 343 0138 00000000 		.word	0
 344 013c 0088A340 		.word	1084459008
 345 0140 00000000 		.word	new
 346 0144 00000000 		.word	.LANCHOR1
 347 0148 00000000 		.word	elapsed
 348 014c 00A09340 		.word	1083416576
 349 0150 00000000 		.word	.LANCHOR0
 350 0154 00001040 		.word	1074790400
 351 0158 00000000 		.word	err_speed
 352 015c 00006940 		.word	1080623104
 353 0160 00005940 		.word	1079574528
 354 0164 00002E40 		.word	1076756480
 355 0168 00000000 		.word	pwm
ARM GAS  C:\Users\danie\AppData\Local\Temp\cc8uma5Z.s 			page 9


 356 016c 00407F40 		.word	1082081280
 357 0170 00408F40 		.word	1083129856
 358 0174 00000000 		.word	strbuf
 359 0178 4C000000 		.word	.LC4
 360              		.cfi_endproc
 361              	.LFE65:
 362              		.size	speed_inter, .-speed_inter
 363              		.section	.text.main,"ax",%progbits
 364              		.align	2
 365              		.global	main
 366              		.thumb
 367              		.thumb_func
 368              		.type	main, %function
 369              	main:
 370              	.LFB66:
 102:main.c        **** }
 103:main.c        **** 
 104:main.c        **** // Main function
 105:main.c        **** int main(void) {
 371              		.loc 1 105 0
 372              		.cfi_startproc
 373              		@ Volatile: function does not return.
 374              		@ args = 0, pretend = 0, frame = 0
 375              		@ frame_needed = 0, uses_anonymous_args = 0
 376 0000 08B5     		push	{r3, lr}
 377              		.cfi_def_cfa_offset 8
 378              		.cfi_offset 3, -8
 379              		.cfi_offset 14, -4
 106:main.c        ****     CyGlobalIntEnable;
 380              		.loc 1 106 0
 381              		.syntax unified
 382              	@ 106 "main.c" 1
 383 0002 62B6     		CPSIE   i
 384              	@ 0 "" 2
 107:main.c        ****     
 108:main.c        ****     // Speed control init
 109:main.c        ****     PWM_Start();
 385              		.loc 1 109 0
 386              		.thumb
 387              		.syntax unified
 388 0004 FFF7FEFF 		bl	PWM_Start
 389              	.LVL34:
 110:main.c        ****     TIMER_Start();
 390              		.loc 1 110 0
 391 0008 FFF7FEFF 		bl	TIMER_Start
 392              	.LVL35:
 111:main.c        ****     UART_Start();
 393              		.loc 1 111 0
 394 000c FFF7FEFF 		bl	UART_Start
 395              	.LVL36:
 112:main.c        **** 
 113:main.c        ****     // Steering control init
 114:main.c        ****     VID_TIMER_Start();
 396              		.loc 1 114 0
 397 0010 FFF7FEFF 		bl	VID_TIMER_Start
 398              	.LVL37:
 115:main.c        ****     SERVO_PWM_Start();
ARM GAS  C:\Users\danie\AppData\Local\Temp\cc8uma5Z.s 			page 10


 399              		.loc 1 115 0
 400 0014 FFF7FEFF 		bl	SERVO_PWM_Start
 401              	.LVL38:
 116:main.c        ****     VDAC_Start();
 402              		.loc 1 116 0
 403 0018 FFF7FEFF 		bl	VDAC_Start
 404              	.LVL39:
 117:main.c        ****     COMP_Start();
 405              		.loc 1 117 0
 406 001c FFF7FEFF 		bl	COMP_Start
 407              	.LVL40:
 118:main.c        ****     
 119:main.c        ****     // Interrupts
 120:main.c        ****     INT_SAMPLE_Start();
 408              		.loc 1 120 0
 409 0020 FFF7FEFF 		bl	INT_SAMPLE_Start
 410              	.LVL41:
 121:main.c        ****     INT_SAMPLE_SetVector(steer_inter);
 411              		.loc 1 121 0
 412 0024 0548     		ldr	r0, .L25
 413 0026 FFF7FEFF 		bl	INT_SAMPLE_SetVector
 414              	.LVL42:
 122:main.c        ****     
 123:main.c        ****     HE_ISR_Start();
 415              		.loc 1 123 0
 416 002a FFF7FEFF 		bl	HE_ISR_Start
 417              	.LVL43:
 124:main.c        ****     HE_ISR_SetVector(speed_inter);
 418              		.loc 1 124 0
 419 002e 0448     		ldr	r0, .L25+4
 420 0030 FFF7FEFF 		bl	HE_ISR_SetVector
 421              	.LVL44:
 125:main.c        ****     
 126:main.c        ****     // DEBUG
 127:main.c        ****     UART_PutString("Test");
 422              		.loc 1 127 0
 423 0034 0348     		ldr	r0, .L25+8
 424 0036 FFF7FEFF 		bl	UART_PutString
 425              	.LVL45:
 426              	.L23:
 427 003a FEE7     		b	.L23
 428              	.L26:
 429              		.align	2
 430              	.L25:
 431 003c 00000000 		.word	steer_inter
 432 0040 00000000 		.word	speed_inter
 433 0044 58000000 		.word	.LC5
 434              		.cfi_endproc
 435              	.LFE66:
 436              		.size	main, .-main
 437              		.comm	str_buf,32,4
 438              		.comm	sampledTime,8,8
 439              		.global	steeringPWM
 440              		.global	steeringOutput
 441              		.global	previousSteeringError
 442              		.global	steeringDerivative
 443              		.global	steeringIntegral
ARM GAS  C:\Users\danie\AppData\Local\Temp\cc8uma5Z.s 			page 11


 444              		.global	error_steering
 445              		.comm	strbuf,42,4
 446              		.global	acc_err_speed
 447              		.comm	err_speed,8,8
 448              		.comm	pwm,8,8
 449              		.global	PWM_base
 450              		.comm	elapsed,2,2
 451              		.comm	new,2,2
 452              		.global	old
 453              		.global	speed
 454              		.data
 455              		.align	3
 456              		.set	.LANCHOR1,. + 0
 457              		.type	old, %object
 458              		.size	old, 2
 459              	old:
 460 0000 FFFF     		.short	-1
 461 0002 00000000 		.space	6
 461      0000
 462              		.type	PWM_base, %object
 463              		.size	PWM_base, 8
 464              	PWM_base:
 465 0008 00000000 		.word	0
 466 000c 00408F40 		.word	1083129856
 467              		.section	.rodata.str1.4,"aMS",%progbits,1
 468              		.align	2
 469              	.LC0:
 470 0000 0D0A204E 		.ascii	"\015\012 NAV INTR\000"
 470      41562049 
 470      4E545200 
 471              	.LC1:
 472 000c 0D0A2074 		.ascii	"\015\012 time:  %f\000"
 472      696D653A 
 472      20202566 
 472      00
 473 0019 000000   		.space	3
 474              	.LC2:
 475 001c 0D0A2073 		.ascii	"\015\012 steering error:  %f\000"
 475      74656572 
 475      696E6720 
 475      6572726F 
 475      723A2020 
 476 0033 00       		.space	1
 477              	.LC3:
 478 0034 0D0A2073 		.ascii	"\015\012 steering pwm:  %f\000"
 478      74656572 
 478      696E6720 
 478      70776D3A 
 478      20202566 
 479 0049 000000   		.space	3
 480              	.LC4:
 481 004c 25642066 		.ascii	"%d ft/s,\015\012\000"
 481      742F732C 
 481      0D0A00
 482 0057 00       		.space	1
 483              	.LC5:
 484 0058 54657374 		.ascii	"Test\000"
ARM GAS  C:\Users\danie\AppData\Local\Temp\cc8uma5Z.s 			page 12


 484      00
 485              		.bss
 486              		.align	3
 487              		.set	.LANCHOR0,. + 0
 488              		.type	error_steering, %object
 489              		.size	error_steering, 8
 490              	error_steering:
 491 0000 00000000 		.space	8
 491      00000000 
 492              		.type	steeringOutput, %object
 493              		.size	steeringOutput, 8
 494              	steeringOutput:
 495 0008 00000000 		.space	8
 495      00000000 
 496              		.type	steeringPWM, %object
 497              		.size	steeringPWM, 4
 498              	steeringPWM:
 499 0010 00000000 		.space	4
 500 0014 00000000 		.space	4
 501              		.type	speed, %object
 502              		.size	speed, 8
 503              	speed:
 504 0018 00000000 		.space	8
 504      00000000 
 505              		.type	acc_err_speed, %object
 506              		.size	acc_err_speed, 8
 507              	acc_err_speed:
 508 0020 00000000 		.space	8
 508      00000000 
 509              		.type	previousSteeringError, %object
 510              		.size	previousSteeringError, 8
 511              	previousSteeringError:
 512 0028 00000000 		.space	8
 512      00000000 
 513              		.type	steeringDerivative, %object
 514              		.size	steeringDerivative, 8
 515              	steeringDerivative:
 516 0030 00000000 		.space	8
 516      00000000 
 517              		.type	steeringIntegral, %object
 518              		.size	steeringIntegral, 8
 519              	steeringIntegral:
 520 0038 00000000 		.space	8
 520      00000000 
 521              		.text
 522              	.Letext0:
 523              		.file 2 "c:\\program files (x86)\\cypress\\psoc creator\\4.4\\psoc creator\\import\\gnu\\arm\\5.4.
 524              		.file 3 "c:\\program files (x86)\\cypress\\psoc creator\\4.4\\psoc creator\\import\\gnu\\arm\\5.4.
 525              		.file 4 "Generated_Source\\PSoC5/cytypes.h"
 526              		.file 5 "Generated_Source\\PSoC5/core_cm3.h"
 527              		.file 6 "Generated_Source\\PSoC5/VID_TIMER.h"
 528              		.file 7 "Generated_Source\\PSoC5/UART.h"
 529              		.file 8 "c:\\program files (x86)\\cypress\\psoc creator\\4.4\\psoc creator\\import\\gnu\\arm\\5.4.
 530              		.file 9 "Generated_Source\\PSoC5/SERVO_PWM.h"
 531              		.file 10 "Generated_Source\\PSoC5/TIMER.h"
 532              		.file 11 "Generated_Source\\PSoC5/PWM.h"
 533              		.file 12 "Generated_Source\\PSoC5/VDAC.h"
ARM GAS  C:\Users\danie\AppData\Local\Temp\cc8uma5Z.s 			page 13


 534              		.file 13 "Generated_Source\\PSoC5/COMP.h"
 535              		.file 14 "Generated_Source\\PSoC5/INT_SAMPLE.h"
 536              		.file 15 "Generated_Source\\PSoC5/HE_ISR.h"